target datalayout = "e-m:e-p270:32:32-p271:32:32-p272:64:64-i64:64-i128:128-f80:128-n8:16:32:64-S128"
target triple = "x86_64-pc-linux-gnu"

; Function Attrs: inlinehint nounwind uwtable
define internal void @store32(ptr noundef %0, i32 noundef %1) #3 {
  %3 = alloca ptr, align 8
  %4 = alloca i32, align 4
  store ptr %0, ptr %3, align 8, !tbaa !23
  store i32 %1, ptr %4, align 4, !tbaa !8
  %5 = load ptr, ptr %3, align 8, !tbaa !23
  call void @llvm.memcpy.p0.p0.i64(ptr align 1 %5, ptr align 4 %4, i64 4, i1 false)
  ret void
}

; Function Attrs: inlinehint nounwind uwtable
define internal i32 @__uint32_identity(i32 noundef %0) #3 {
  %2 = alloca i32, align 4
  store i32 %0, ptr %2, align 4, !tbaa !8
  %3 = load i32, ptr %2, align 4, !tbaa !8
  ret i32 %3
}

; Function Attrs: nounwind uwtable
define hidden void @python_hashlib_Hacl_Hash_Blake2s_finish(i32 noundef %0, ptr noundef %1, ptr noundef %2) #0 {
  %4 = alloca i32, align 4
  %5 = alloca ptr, align 8
  %6 = alloca ptr, align 8
  %7 = alloca [32 x i8], align 16
  %8 = alloca ptr, align 8
  %9 = alloca ptr, align 8
  %10 = alloca ptr, align 8
  %11 = alloca ptr, align 8
  %12 = alloca i32, align 4
  %13 = alloca i32, align 4
  %14 = alloca ptr, align 8
  store i32 %0, ptr %4, align 4, !tbaa !8
  store ptr %1, ptr %5, align 8, !tbaa !23
  store ptr %2, ptr %6, align 8, !tbaa !3
  call void @llvm.lifetime.start.p0(i64 32, ptr %7) #9
  call void @llvm.memset.p0.i64(ptr align 16 %7, i8 0, i64 32, i1 false)
  call void @llvm.lifetime.start.p0(i64 8, ptr %8) #9
  %15 = getelementptr inbounds [32 x i8], ptr %7, i64 0, i64 0
  store ptr %15, ptr %8, align 8, !tbaa !23
  call void @llvm.lifetime.start.p0(i64 8, ptr %9) #9
  %16 = getelementptr inbounds [32 x i8], ptr %7, i64 0, i64 0
  %17 = getelementptr i8, ptr %16, i64 16
  store ptr %17, ptr %9, align 8, !tbaa !23
  call void @llvm.lifetime.start.p0(i64 8, ptr %10) #9
  %18 = load ptr, ptr %6, align 8, !tbaa !3
  store ptr %18, ptr %10, align 8, !tbaa !3
  call void @llvm.lifetime.start.p0(i64 8, ptr %11) #9
  %19 = load ptr, ptr %6, align 8, !tbaa !3
  %20 = getelementptr i32, ptr %19, i64 4
  store ptr %20, ptr %11, align 8, !tbaa !3
  br label %21

21:                                               ; preds = %3
  call void @llvm.lifetime.start.p0(i64 4, ptr %12) #9
  store i32 0, ptr %12, align 4, !tbaa !8
  %22 = load ptr, ptr %8, align 8, !tbaa !23
  %23 = load i32, ptr %12, align 4, !tbaa !8
  %24 = mul i32 %23, 4
  %25 = zext i32 %24 to i64
  %26 = getelementptr i8, ptr %22, i64 %25
  %27 = load ptr, ptr %10, align 8, !tbaa !3
  %28 = load i32, ptr %12, align 4, !tbaa !8
  %29 = zext i32 %28 to i64
  %30 = getelementptr i32, ptr %27, i64 %29
  %31 = load i32, ptr %30, align 4, !tbaa !8
  %32 = call i32 @__uint32_identity(i32 noundef %31)
  call void @store32(ptr noundef %26, i32 noundef %32)
  %33 = load i32, ptr %12, align 4, !tbaa !8
  %34 = add i32 %33, 1
  store i32 %34, ptr %12, align 4, !tbaa !8
  %35 = load ptr, ptr %8, align 8, !tbaa !23
  %36 = load i32, ptr %12, align 4, !tbaa !8
  %37 = mul i32 %36, 4
  %38 = zext i32 %37 to i64
  %39 = getelementptr i8, ptr %35, i64 %38
  %40 = load ptr, ptr %10, align 8, !tbaa !3
  %41 = load i32, ptr %12, align 4, !tbaa !8
  %42 = zext i32 %41 to i64
  %43 = getelementptr i32, ptr %40, i64 %42
  %44 = load i32, ptr %43, align 4, !tbaa !8
  %45 = call i32 @__uint32_identity(i32 noundef %44)
  call void @store32(ptr noundef %39, i32 noundef %45)
  %46 = load i32, ptr %12, align 4, !tbaa !8
  %47 = add i32 %46, 1
  store i32 %47, ptr %12, align 4, !tbaa !8
  %48 = load ptr, ptr %8, align 8, !tbaa !23
  %49 = load i32, ptr %12, align 4, !tbaa !8
  %50 = mul i32 %49, 4
  %51 = zext i32 %50 to i64
  %52 = getelementptr i8, ptr %48, i64 %51
  %53 = load ptr, ptr %10, align 8, !tbaa !3
  %54 = load i32, ptr %12, align 4, !tbaa !8
  %55 = zext i32 %54 to i64
  %56 = getelementptr i32, ptr %53, i64 %55
  %57 = load i32, ptr %56, align 4, !tbaa !8
  %58 = call i32 @__uint32_identity(i32 noundef %57)
  call void @store32(ptr noundef %52, i32 noundef %58)
  %59 = load i32, ptr %12, align 4, !tbaa !8
  %60 = add i32 %59, 1
  store i32 %60, ptr %12, align 4, !tbaa !8
  %61 = load ptr, ptr %8, align 8, !tbaa !23
  %62 = load i32, ptr %12, align 4, !tbaa !8
  %63 = mul i32 %62, 4
  %64 = zext i32 %63 to i64
  %65 = getelementptr i8, ptr %61, i64 %64
  %66 = load ptr, ptr %10, align 8, !tbaa !3
  %67 = load i32, ptr %12, align 4, !tbaa !8
  %68 = zext i32 %67 to i64
  %69 = getelementptr i32, ptr %66, i64 %68
  %70 = load i32, ptr %69, align 4, !tbaa !8
  %71 = call i32 @__uint32_identity(i32 noundef %70)
  call void @store32(ptr noundef %65, i32 noundef %71)
  %72 = load i32, ptr %12, align 4, !tbaa !8
  %73 = add i32 %72, 1
  store i32 %73, ptr %12, align 4, !tbaa !8
  call void @llvm.lifetime.end.p0(i64 4, ptr %12) #9
  br label %74

74:                                               ; preds = %21
  br label %75

75:                                               ; preds = %74
  br label %76

76:                                               ; preds = %75
  call void @llvm.lifetime.start.p0(i64 4, ptr %13) #9
  store i32 0, ptr %13, align 4, !tbaa !8
  %77 = load ptr, ptr %9, align 8, !tbaa !23
  %78 = load i32, ptr %13, align 4, !tbaa !8
  %79 = mul i32 %78, 4
  %80 = zext i32 %79 to i64
  %81 = getelementptr i8, ptr %77, i64 %80
  %82 = load ptr, ptr %11, align 8, !tbaa !3
  %83 = load i32, ptr %13, align 4, !tbaa !8
  %84 = zext i32 %83 to i64
  %85 = getelementptr i32, ptr %82, i64 %84
  %86 = load i32, ptr %85, align 4, !tbaa !8
  %87 = call i32 @__uint32_identity(i32 noundef %86)
  call void @store32(ptr noundef %81, i32 noundef %87)
  %88 = load i32, ptr %13, align 4, !tbaa !8
  %89 = add i32 %88, 1
  store i32 %89, ptr %13, align 4, !tbaa !8
  %90 = load ptr, ptr %9, align 8, !tbaa !23
  %91 = load i32, ptr %13, align 4, !tbaa !8
  %92 = mul i32 %91, 4
  %93 = zext i32 %92 to i64
  %94 = getelementptr i8, ptr %90, i64 %93
  %95 = load ptr, ptr %11, align 8, !tbaa !3
  %96 = load i32, ptr %13, align 4, !tbaa !8
  %97 = zext i32 %96 to i64
  %98 = getelementptr i32, ptr %95, i64 %97
  %99 = load i32, ptr %98, align 4, !tbaa !8
  %100 = call i32 @__uint32_identity(i32 noundef %99)
  call void @store32(ptr noundef %94, i32 noundef %100)
  %101 = load i32, ptr %13, align 4, !tbaa !8
  %102 = add i32 %101, 1
  store i32 %102, ptr %13, align 4, !tbaa !8
  %103 = load ptr, ptr %9, align 8, !tbaa !23
  %104 = load i32, ptr %13, align 4, !tbaa !8
  %105 = mul i32 %104, 4
  %106 = zext i32 %105 to i64
  %107 = getelementptr i8, ptr %103, i64 %106
  %108 = load ptr, ptr %11, align 8, !tbaa !3
  %109 = load i32, ptr %13, align 4, !tbaa !8
  %110 = zext i32 %109 to i64
  %111 = getelementptr i32, ptr %108, i64 %110
  %112 = load i32, ptr %111, align 4, !tbaa !8
  %113 = call i32 @__uint32_identity(i32 noundef %112)
  call void @store32(ptr noundef %107, i32 noundef %113)
  %114 = load i32, ptr %13, align 4, !tbaa !8
  %115 = add i32 %114, 1
  store i32 %115, ptr %13, align 4, !tbaa !8
  %116 = load ptr, ptr %9, align 8, !tbaa !23
  %117 = load i32, ptr %13, align 4, !tbaa !8
  %118 = mul i32 %117, 4
  %119 = zext i32 %118 to i64
  %120 = getelementptr i8, ptr %116, i64 %119
  %121 = load ptr, ptr %11, align 8, !tbaa !3
  %122 = load i32, ptr %13, align 4, !tbaa !8
  %123 = zext i32 %122 to i64
  %124 = getelementptr i32, ptr %121, i64 %123
  %125 = load i32, ptr %124, align 4, !tbaa !8
  %126 = call i32 @__uint32_identity(i32 noundef %125)
  call void @store32(ptr noundef %120, i32 noundef %126)
  %127 = load i32, ptr %13, align 4, !tbaa !8
  %128 = add i32 %127, 1
  store i32 %128, ptr %13, align 4, !tbaa !8
  call void @llvm.lifetime.end.p0(i64 4, ptr %13) #9
  br label %129

129:                                              ; preds = %76
  br label %130

130:                                              ; preds = %129
  call void @llvm.lifetime.start.p0(i64 8, ptr %14) #9
  %131 = getelementptr inbounds [32 x i8], ptr %7, i64 0, i64 0
  store ptr %131, ptr %14, align 8, !tbaa !23
  %132 = load ptr, ptr %5, align 8, !tbaa !23
  %133 = load ptr, ptr %14, align 8, !tbaa !23
  %134 = load i32, ptr %4, align 4, !tbaa !8
  %135 = zext i32 %134 to i64
  %136 = mul i64 %135, 1
  call void @llvm.memcpy.p0.p0.i64(ptr align 1 %132, ptr align 1 %133, i64 %136, i1 false)
  %137 = getelementptr inbounds [32 x i8], ptr %7, i64 0, i64 0
  call void @Lib_Memzero0_memzero0(ptr noundef %137, i64 noundef 32)
  call void @llvm.lifetime.end.p0(i64 8, ptr %14) #9
  call void @llvm.lifetime.end.p0(i64 8, ptr %11) #9
  call void @llvm.lifetime.end.p0(i64 8, ptr %10) #9
  call void @llvm.lifetime.end.p0(i64 8, ptr %9) #9
  call void @llvm.lifetime.end.p0(i64 8, ptr %8) #9
  call void @llvm.lifetime.end.p0(i64 32, ptr %7) #9
  ret void
}