; Function Attrs: nounwind uwtable
define hidden void @python_hashlib_Hacl_Hash_Blake2s_finish(i32 noundef %0, ptr noundef writeonly captures(none) %1, ptr noundef readonly captures(none) %2) local_unnamed_addr #5 {
  %4 = alloca [32 x i8], align 16
  call void @llvm.lifetime.start.p0(i64 32, ptr nonnull %4) #20
  %5 = getelementptr inbounds nuw i8, ptr %4, i64 16
  %6 = getelementptr i8, ptr %2, i64 16
  %7 = load i32, ptr %2, align 4, !tbaa !3
  store i32 %7, ptr %4, align 16
  %8 = getelementptr inbounds nuw i8, ptr %4, i64 4
  %9 = getelementptr i8, ptr %2, i64 4
  %10 = load i32, ptr %9, align 4, !tbaa !3
  store i32 %10, ptr %8, align 4
  %11 = getelementptr inbounds nuw i8, ptr %4, i64 8
  %12 = getelementptr i8, ptr %2, i64 8
  %13 = load i32, ptr %12, align 4, !tbaa !3
  store i32 %13, ptr %11, align 8
  %14 = getelementptr inbounds nuw i8, ptr %4, i64 12
  %15 = getelementptr i8, ptr %2, i64 12
  %16 = load i32, ptr %15, align 4, !tbaa !3
  store i32 %16, ptr %14, align 4
  %17 = load i32, ptr %6, align 4, !tbaa !3
  store i32 %17, ptr %5, align 16
  %18 = getelementptr inbounds nuw i8, ptr %4, i64 20
  %19 = getelementptr i8, ptr %2, i64 20
  %20 = load i32, ptr %19, align 4, !tbaa !3
  store i32 %20, ptr %18, align 4
  %21 = getelementptr inbounds nuw i8, ptr %4, i64 24
  %22 = getelementptr i8, ptr %2, i64 24
  %23 = load i32, ptr %22, align 4, !tbaa !3
  store i32 %23, ptr %21, align 8
  %24 = getelementptr inbounds nuw i8, ptr %4, i64 28
  %25 = getelementptr i8, ptr %2, i64 28
  %26 = load i32, ptr %25, align 4, !tbaa !3
  store i32 %26, ptr %24, align 4
  %27 = zext i32 %0 to i64
  call void @llvm.memcpy.p0.p0.i64(ptr align 1 %1, ptr nonnull align 16 %4, i64 %27, i1 false)
  call void @Lib_Memzero0_memzero0(ptr noundef nonnull %4, i64 noundef 32) #20
  call void @llvm.lifetime.end.p0(i64 32, ptr nonnull %4) #20
  ret void
}